target datalayout = "e-m:e-p270:32:32-p271:32:32-p272:64:64-i64:64-i128:128-f80:128-n8:16:32:64-S128"
target triple = "x86_64-pc-linux-gnu"

%struct.QArrayData = type { %"class.QtPrivate::RefCount", i32, i32, i64 }
%"class.QtPrivate::RefCount" = type { %class.QBasicAtomicInteger }
%class.QBasicAtomicInteger = type { %"struct.std::atomic" }
%"struct.std::atomic" = type { %"struct.std::__atomic_base" }
%"struct.std::__atomic_base" = type { i32 }
%class.QString = type { ptr }
%class.PickedPointTreeWidgetItem = type <{ %class.QTreeWidgetItem.base, %"class.vcg::Point3", %"class.vcg::Point3", i8, [3 x i8] }>
%class.QTreeWidgetItem.base = type <{ ptr, i32, [4 x i8], %class.QVector, ptr, ptr, ptr, %class.QList, %class.QFlags }>
%class.QVector = type { ptr }
%class.QList = type { %union.anon }
%union.anon = type { %struct.QListData }
%struct.QListData = type { ptr }
%class.QFlags = type { i32 }
%"class.vcg::Point3" = type { [3 x float] }
%class.QVariant = type { %"struct.QVariant::Private" }
%"struct.QVariant::Private" = type <{ %"union.QVariant::Private::Data", i32, [4 x i8] }>
%"union.QVariant::Private::Data" = type { i64 }

@_ZN10QArrayData11shared_nullE = external global [2 x %struct.QArrayData], align 16

; Function Attrs: mustprogress nounwind uwtable
define linkonce_odr noundef ptr @_ZN10QArrayData10sharedNullEv() #4 comdat align 2 {
  ret ptr @_ZN10QArrayData11shared_nullE
}

; Function Attrs: mustprogress nounwind uwtable
define linkonce_odr noundef ptr @_ZN15QTypedArrayDataItE10sharedNullEv() #4 comdat align 2 {
  %1 = call noundef ptr @_ZN10QArrayData10sharedNullEv() #3
  ret ptr %1
}

; Function Attrs: mustprogress uwtable
define linkonce_odr void @_ZN15QTreeWidgetItem7setTextEiRK7QString(ptr noundef nonnull align 8 dereferenceable(60) %0, i32 noundef %1, ptr noundef nonnull align 8 dereferenceable(8) %2) #5 comdat align 2 personality ptr @__gxx_personality_v0 {
  %4 = alloca ptr, align 8
  %5 = alloca i32, align 4
  %6 = alloca ptr, align 8
  %7 = alloca %class.QVariant, align 8
  %8 = alloca ptr, align 8
  %9 = alloca i32, align 4
  store ptr %0, ptr %4, align 8
  store i32 %1, ptr %5, align 4
  store ptr %2, ptr %6, align 8
  %10 = load ptr, ptr %4, align 8
  %11 = load i32, ptr %5, align 4
  %12 = load ptr, ptr %6, align 8
  call void @_ZN8QVariantC1ERK7QString(ptr noundef nonnull align 8 dereferenceable(16) %7, ptr noundef nonnull align 8 dereferenceable(8) %12)
  %13 = load ptr, ptr %10, align 8
  %14 = getelementptr inbounds ptr, ptr %13, i64 4
  %15 = load ptr, ptr %14, align 8
  invoke void %15(ptr noundef nonnull align 8 dereferenceable(60) %10, i32 noundef %11, i32 noundef 0, ptr noundef nonnull align 8 dereferenceable(16) %7)
          to label %16 unwind label %17

16:                                               ; preds = %3
  call void @_ZN8QVariantD1Ev(ptr noundef nonnull align 8 dereferenceable(16) %7) #3
  ret void

17:                                               ; preds = %3
  %18 = landingpad { ptr, i32 }
          cleanup
  %19 = extractvalue { ptr, i32 } %18, 0
  store ptr %19, ptr %8, align 8
  %20 = extractvalue { ptr, i32 } %18, 1
  store i32 %20, ptr %9, align 4
  call void @_ZN8QVariantD1Ev(ptr noundef nonnull align 8 dereferenceable(16) %7) #3
  br label %21

21:                                               ; preds = %17
  %22 = load ptr, ptr %8, align 8
  %23 = load i32, ptr %9, align 4
  %24 = insertvalue { ptr, i32 } poison, ptr %22, 0
  %25 = insertvalue { ptr, i32 } %24, i32 %23, 1
  resume { ptr, i32 } %25
}

; Function Attrs: mustprogress uwtable
define linkonce_odr noundef nonnull align 8 dereferenceable(8) ptr @_ZN7QString6setNumEfci(ptr noundef nonnull align 8 dereferenceable(8) %0, float noundef %1, i8 noundef signext %2, i32 noundef %3) #5 comdat align 2 {
  %5 = alloca ptr, align 8
  %6 = alloca float, align 4
  %7 = alloca i8, align 1
  %8 = alloca i32, align 4
  store ptr %0, ptr %5, align 8
  store float %1, ptr %6, align 4
  store i8 %2, ptr %7, align 1
  store i32 %3, ptr %8, align 4
  %9 = load ptr, ptr %5, align 8
  %10 = load float, ptr %6, align 4
  %11 = fpext float %10 to double
  %12 = load i8, ptr %7, align 1
  %13 = load i32, ptr %8, align 4
  %14 = call noundef nonnull align 8 dereferenceable(8) ptr @_ZN7QString6setNumEdci(ptr noundef nonnull align 8 dereferenceable(8) %9, double noundef %11, i8 noundef signext %12, i32 noundef %13)
  ret ptr %14
}

; Function Attrs: mustprogress nounwind uwtable
define linkonce_odr void @_ZN7QStringC2Ev(ptr noundef nonnull align 8 dereferenceable(8) %0) unnamed_addr #4 comdat align 2 {
  %2 = alloca ptr, align 8
  store ptr %0, ptr %2, align 8
  %3 = load ptr, ptr %2, align 8
  %4 = getelementptr inbounds %class.QString, ptr %3, i32 0, i32 0
  %5 = call noundef ptr @_ZN15QTypedArrayDataItE10sharedNullEv() #3
  store ptr %5, ptr %4, align 8
  ret void
}

; Function Attrs: mustprogress nounwind uwtable
define linkonce_odr noundef nonnull align 4 dereferenceable(4) ptr @_ZN3vcg6Point3IfEixEi(ptr noundef nonnull align 4 dereferenceable(12) %0, i32 noundef %1) #4 comdat align 2 {
  %3 = alloca ptr, align 8
  %4 = alloca i32, align 4
  store ptr %0, ptr %3, align 8
  store i32 %1, ptr %4, align 4
  %5 = load ptr, ptr %3, align 8
  %6 = getelementptr inbounds %"class.vcg::Point3", ptr %5, i32 0, i32 0
  %7 = load i32, ptr %4, align 4
  %8 = sext i32 %7 to i64
  %9 = getelementptr inbounds [3 x float], ptr %6, i64 0, i64 %8
  ret ptr %9
}

; Function Attrs: mustprogress uwtable
define void @_ZN25PickedPointTreeWidgetItem17setPointAndNormalERN3vcg6Point3IfEES3_(ptr noundef nonnull align 8 dereferenceable(85) %0, ptr noundef nonnull align 4 dereferenceable(12) %1, ptr noundef nonnull align 4 dereferenceable(12) %2) #5 align 2 personality ptr @__gxx_personality_v0 {
  %4 = alloca ptr, align 8
  %5 = alloca ptr, align 8
  %6 = alloca ptr, align 8
  %7 = alloca %class.QString, align 8
  %8 = alloca ptr, align 8
  %9 = alloca i32, align 4
  store ptr %0, ptr %4, align 8
  store ptr %1, ptr %5, align 8
  store ptr %2, ptr %6, align 8
  %10 = load ptr, ptr %4, align 8
  %11 = load ptr, ptr %5, align 8
  %12 = call noundef nonnull align 4 dereferenceable(4) ptr @_ZN3vcg6Point3IfEixEi(ptr noundef nonnull align 4 dereferenceable(12) %11, i32 noundef 0)
  %13 = load float, ptr %12, align 4
  %14 = getelementptr inbounds %class.PickedPointTreeWidgetItem, ptr %10, i32 0, i32 1
  %15 = call noundef nonnull align 4 dereferenceable(4) ptr @_ZN3vcg6Point3IfEixEi(ptr noundef nonnull align 4 dereferenceable(12) %14, i32 noundef 0)
  store float %13, ptr %15, align 4
  %16 = load ptr, ptr %5, align 8
  %17 = call noundef nonnull align 4 dereferenceable(4) ptr @_ZN3vcg6Point3IfEixEi(ptr noundef nonnull align 4 dereferenceable(12) %16, i32 noundef 1)
  %18 = load float, ptr %17, align 4
  %19 = getelementptr inbounds %class.PickedPointTreeWidgetItem, ptr %10, i32 0, i32 1
  %20 = call noundef nonnull align 4 dereferenceable(4) ptr @_ZN3vcg6Point3IfEixEi(ptr noundef nonnull align 4 dereferenceable(12) %19, i32 noundef 1)
  store float %18, ptr %20, align 4
  %21 = load ptr, ptr %5, align 8
  %22 = call noundef nonnull align 4 dereferenceable(4) ptr @_ZN3vcg6Point3IfEixEi(ptr noundef nonnull align 4 dereferenceable(12) %21, i32 noundef 2)
  %23 = load float, ptr %22, align 4
  %24 = getelementptr inbounds %class.PickedPointTreeWidgetItem, ptr %10, i32 0, i32 1
  %25 = call noundef nonnull align 4 dereferenceable(4) ptr @_ZN3vcg6Point3IfEixEi(ptr noundef nonnull align 4 dereferenceable(12) %24, i32 noundef 2)
  store float %23, ptr %25, align 4
  %26 = load ptr, ptr %6, align 8
  %27 = call noundef nonnull align 4 dereferenceable(4) ptr @_ZN3vcg6Point3IfEixEi(ptr noundef nonnull align 4 dereferenceable(12) %26, i32 noundef 0)
  %28 = load float, ptr %27, align 4
  %29 = getelementptr inbounds %class.PickedPointTreeWidgetItem, ptr %10, i32 0, i32 2
  %30 = call noundef nonnull align 4 dereferenceable(4) ptr @_ZN3vcg6Point3IfEixEi(ptr noundef nonnull align 4 dereferenceable(12) %29, i32 noundef 0)
  store float %28, ptr %30, align 4
  %31 = load ptr, ptr %6, align 8
  %32 = call noundef nonnull align 4 dereferenceable(4) ptr @_ZN3vcg6Point3IfEixEi(ptr noundef nonnull align 4 dereferenceable(12) %31, i32 noundef 1)
  %33 = load float, ptr %32, align 4
  %34 = getelementptr inbounds %class.PickedPointTreeWidgetItem, ptr %10, i32 0, i32 2
  %35 = call noundef nonnull align 4 dereferenceable(4) ptr @_ZN3vcg6Point3IfEixEi(ptr noundef nonnull align 4 dereferenceable(12) %34, i32 noundef 1)
  store float %33, ptr %35, align 4
  %36 = load ptr, ptr %6, align 8
  %37 = call noundef nonnull align 4 dereferenceable(4) ptr @_ZN3vcg6Point3IfEixEi(ptr noundef nonnull align 4 dereferenceable(12) %36, i32 noundef 2)
  %38 = load float, ptr %37, align 4
  %39 = getelementptr inbounds %class.PickedPointTreeWidgetItem, ptr %10, i32 0, i32 2
  %40 = call noundef nonnull align 4 dereferenceable(4) ptr @_ZN3vcg6Point3IfEixEi(ptr noundef nonnull align 4 dereferenceable(12) %39, i32 noundef 2)
  store float %38, ptr %40, align 4
  call void @_ZN7QStringC2Ev(ptr noundef nonnull align 8 dereferenceable(8) %7) #3
  %41 = getelementptr inbounds %class.PickedPointTreeWidgetItem, ptr %10, i32 0, i32 1
  %42 = invoke noundef nonnull align 4 dereferenceable(4) ptr @_ZN3vcg6Point3IfEixEi(ptr noundef nonnull align 4 dereferenceable(12) %41, i32 noundef 0)
          to label %43 unwind label %62

43:                                               ; preds = %3
  %44 = load float, ptr %42, align 4
  %45 = invoke noundef nonnull align 8 dereferenceable(8) ptr @_ZN7QString6setNumEfci(ptr noundef nonnull align 8 dereferenceable(8) %7, float noundef %44, i8 noundef signext 103, i32 noundef 6)
          to label %46 unwind label %62

46:                                               ; preds = %43
  invoke void @_ZN15QTreeWidgetItem7setTextEiRK7QString(ptr noundef nonnull align 8 dereferenceable(60) %10, i32 noundef 1, ptr noundef nonnull align 8 dereferenceable(8) %7)
          to label %47 unwind label %62

47:                                               ; preds = %46
  %48 = getelementptr inbounds %class.PickedPointTreeWidgetItem, ptr %10, i32 0, i32 1
  %49 = invoke noundef nonnull align 4 dereferenceable(4) ptr @_ZN3vcg6Point3IfEixEi(ptr noundef nonnull align 4 dereferenceable(12) %48, i32 noundef 1)
          to label %50 unwind label %62

50:                                               ; preds = %47
  %51 = load float, ptr %49, align 4
  %52 = invoke noundef nonnull align 8 dereferenceable(8) ptr @_ZN7QString6setNumEfci(ptr noundef nonnull align 8 dereferenceable(8) %7, float noundef %51, i8 noundef signext 103, i32 noundef 6)
          to label %53 unwind label %62

53:                                               ; preds = %50
  invoke void @_ZN15QTreeWidgetItem7setTextEiRK7QString(ptr noundef nonnull align 8 dereferenceable(60) %10, i32 noundef 2, ptr noundef nonnull align 8 dereferenceable(8) %7)
          to label %54 unwind label %62

54:                                               ; preds = %53
  %55 = getelementptr inbounds %class.PickedPointTreeWidgetItem, ptr %10, i32 0, i32 1
  %56 = invoke noundef nonnull align 4 dereferenceable(4) ptr @_ZN3vcg6Point3IfEixEi(ptr noundef nonnull align 4 dereferenceable(12) %55, i32 noundef 2)
          to label %57 unwind label %62

57:                                               ; preds = %54
  %58 = load float, ptr %56, align 4
  %59 = invoke noundef nonnull align 8 dereferenceable(8) ptr @_ZN7QString6setNumEfci(ptr noundef nonnull align 8 dereferenceable(8) %7, float noundef %58, i8 noundef signext 103, i32 noundef 6)
          to label %60 unwind label %62

60:                                               ; preds = %57
  invoke void @_ZN15QTreeWidgetItem7setTextEiRK7QString(ptr noundef nonnull align 8 dereferenceable(60) %10, i32 noundef 3, ptr noundef nonnull align 8 dereferenceable(8) %7)
          to label %61 unwind label %62

61:                                               ; preds = %60
  call void @_ZN7QStringD2Ev(ptr noundef nonnull align 8 dereferenceable(8) %7) #3
  ret void

62:                                               ; preds = %60, %57, %54, %53, %50, %47, %46, %43, %3
  %63 = landingpad { ptr, i32 }
          cleanup
  %64 = extractvalue { ptr, i32 } %63, 0
  store ptr %64, ptr %8, align 8
  %65 = extractvalue { ptr, i32 } %63, 1
  store i32 %65, ptr %9, align 4
  call void @_ZN7QStringD2Ev(ptr noundef nonnull align 8 dereferenceable(8) %7) #3
  br label %66

66:                                               ; preds = %62
  %67 = load ptr, ptr %8, align 8
  %68 = load i32, ptr %9, align 4
  %69 = insertvalue { ptr, i32 } poison, ptr %67, 0
  %70 = insertvalue { ptr, i32 } %69, i32 %68, 1
  resume { ptr, i32 } %70
}