; Function Attrs: mustprogress uwtable
define void @_ZN25PickedPointTreeWidgetItem17setPointAndNormalERN3vcg6Point3IfEES3_(ptr noundef nonnull align 8 dereferenceable(85) %0, ptr nocapture noundef nonnull readonly align 4 dereferenceable(12) %1, ptr nocapture noundef nonnull readonly align 4 dereferenceable(12) %2) local_unnamed_addr #9 align 2 personality ptr @__gxx_personality_v0 {
  %4 = alloca %class.QVariant, align 8
  %5 = alloca %class.QVariant, align 8
  %6 = alloca %class.QVariant, align 8
  %7 = alloca %class.QString, align 8
  %8 = load float, ptr %1, align 4
  %9 = getelementptr inbounds i8, ptr %0, i64 60
  store float %8, ptr %9, align 4
  %10 = getelementptr inbounds i8, ptr %1, i64 4
  %11 = load float, ptr %10, align 4
  %12 = getelementptr inbounds i8, ptr %0, i64 64
  store float %11, ptr %12, align 8
  %13 = getelementptr inbounds i8, ptr %1, i64 8
  %14 = load float, ptr %13, align 4
  %15 = getelementptr inbounds i8, ptr %0, i64 68
  store float %14, ptr %15, align 4
  %16 = load float, ptr %2, align 4
  %17 = getelementptr inbounds i8, ptr %0, i64 72
  store float %16, ptr %17, align 8
  %18 = getelementptr inbounds i8, ptr %2, i64 4
  %19 = load float, ptr %18, align 4
  %20 = getelementptr inbounds i8, ptr %0, i64 76
  store float %19, ptr %20, align 4
  %21 = getelementptr inbounds i8, ptr %2, i64 8
  %22 = load float, ptr %21, align 4
  %23 = getelementptr inbounds i8, ptr %0, i64 80
  store float %22, ptr %23, align 8
  store ptr @_ZN10QArrayData11shared_nullE, ptr %7, align 8
  %24 = fpext float %8 to double
  %25 = invoke noundef nonnull align 8 dereferenceable(8) ptr @_ZN7QString6setNumEdci(ptr noundef nonnull align 8 dereferenceable(8) %7, double noundef %24, i8 noundef signext 103, i32 noundef 6)
          to label %_ZN7QString6setNumEfci.exit unwind label %54

_ZN7QString6setNumEfci.exit:                      ; preds = %3
  call void @llvm.lifetime.start.p0(i64 16, ptr nonnull %6)
  invoke void @_ZN8QVariantC1ERK7QString(ptr noundef nonnull align 8 dereferenceable(16) %6, ptr noundef nonnull align 8 dereferenceable(8) %7)
          to label %.noexc unwind label %54

.noexc:                                           ; preds = %_ZN7QString6setNumEfci.exit
  %26 = load ptr, ptr %0, align 8
  %27 = getelementptr inbounds i8, ptr %26, i64 32
  %28 = load ptr, ptr %27, align 8
  invoke void %28(ptr noundef nonnull align 8 dereferenceable(60) %0, i32 noundef 1, i32 noundef 0, ptr noundef nonnull align 8 dereferenceable(16) %6)
          to label %31 unwind label %29

29:                                               ; preds = %.noexc
  %30 = landingpad { ptr, i32 }
          cleanup
  call void @_ZN8QVariantD1Ev(ptr noundef nonnull align 8 dereferenceable(16) %6) #27
  br label %.body

31:                                               ; preds = %.noexc
  call void @_ZN8QVariantD1Ev(ptr noundef nonnull align 8 dereferenceable(16) %6) #27
  call void @llvm.lifetime.end.p0(i64 16, ptr nonnull %6)
  %32 = load float, ptr %12, align 8
  %33 = fpext float %32 to double
  %34 = invoke noundef nonnull align 8 dereferenceable(8) ptr @_ZN7QString6setNumEdci(ptr noundef nonnull align 8 dereferenceable(8) %7, double noundef %33, i8 noundef signext 103, i32 noundef 6)
          to label %_ZN7QString6setNumEfci.exit9 unwind label %54

_ZN7QString6setNumEfci.exit9:                     ; preds = %31
  call void @llvm.lifetime.start.p0(i64 16, ptr nonnull %5)
  invoke void @_ZN8QVariantC1ERK7QString(ptr noundef nonnull align 8 dereferenceable(16) %5, ptr noundef nonnull align 8 dereferenceable(8) %7)
          to label %.noexc10 unwind label %54

.noexc10:                                         ; preds = %_ZN7QString6setNumEfci.exit9
  %35 = load ptr, ptr %0, align 8
  %36 = getelementptr inbounds i8, ptr %35, i64 32
  %37 = load ptr, ptr %36, align 8
  invoke void %37(ptr noundef nonnull align 8 dereferenceable(60) %0, i32 noundef 2, i32 noundef 0, ptr noundef nonnull align 8 dereferenceable(16) %5)
          to label %40 unwind label %38

38:                                               ; preds = %.noexc10
  %39 = landingpad { ptr, i32 }
          cleanup
  call void @_ZN8QVariantD1Ev(ptr noundef nonnull align 8 dereferenceable(16) %5) #27
  br label %.body

40:                                               ; preds = %.noexc10
  call void @_ZN8QVariantD1Ev(ptr noundef nonnull align 8 dereferenceable(16) %5) #27
  call void @llvm.lifetime.end.p0(i64 16, ptr nonnull %5)
  %41 = load float, ptr %15, align 4
  %42 = fpext float %41 to double
  %43 = invoke noundef nonnull align 8 dereferenceable(8) ptr @_ZN7QString6setNumEdci(ptr noundef nonnull align 8 dereferenceable(8) %7, double noundef %42, i8 noundef signext 103, i32 noundef 6)
          to label %_ZN7QString6setNumEfci.exit15 unwind label %54

_ZN7QString6setNumEfci.exit15:                    ; preds = %40
  call void @llvm.lifetime.start.p0(i64 16, ptr nonnull %4)
  invoke void @_ZN8QVariantC1ERK7QString(ptr noundef nonnull align 8 dereferenceable(16) %4, ptr noundef nonnull align 8 dereferenceable(8) %7)
          to label %.noexc16 unwind label %54

.noexc16:                                         ; preds = %_ZN7QString6setNumEfci.exit15
  %44 = load ptr, ptr %0, align 8
  %45 = getelementptr inbounds i8, ptr %44, i64 32
  %46 = load ptr, ptr %45, align 8
  invoke void %46(ptr noundef nonnull align 8 dereferenceable(60) %0, i32 noundef 3, i32 noundef 0, ptr noundef nonnull align 8 dereferenceable(16) %4)
          to label %49 unwind label %47

47:                                               ; preds = %.noexc16
  %48 = landingpad { ptr, i32 }
          cleanup
  call void @_ZN8QVariantD1Ev(ptr noundef nonnull align 8 dereferenceable(16) %4) #27
  br label %.body

49:                                               ; preds = %.noexc16
  call void @_ZN8QVariantD1Ev(ptr noundef nonnull align 8 dereferenceable(16) %4) #27
  call void @llvm.lifetime.end.p0(i64 16, ptr nonnull %4)
  %50 = load ptr, ptr %7, align 8
  %51 = load atomic i32, ptr %50 monotonic, align 4
  switch i32 %51, label %_ZN9QtPrivate8RefCount5derefEv.exit.i [
    i32 0, label %_ZN9QtPrivate8RefCount5derefEv.exit.thread2.i
    i32 -1, label %_ZN7QStringD2Ev.exit
  ]

_ZN9QtPrivate8RefCount5derefEv.exit.i:            ; preds = %49
  %52 = atomicrmw sub ptr %50, i32 1 seq_cst, align 4
  %.not.i = icmp eq i32 %52, 1
  br i1 %.not.i, label %_ZN9QtPrivate8RefCount5derefEv.exit._ZN9QtPrivate8RefCount5derefEv.exit.thread2_crit_edge.i, label %_ZN7QStringD2Ev.exit

_ZN9QtPrivate8RefCount5derefEv.exit._ZN9QtPrivate8RefCount5derefEv.exit.thread2_crit_edge.i: ; preds = %_ZN9QtPrivate8RefCount5derefEv.exit.i
  %.pre.i = load ptr, ptr %7, align 8
  br label %_ZN9QtPrivate8RefCount5derefEv.exit.thread2.i

_ZN9QtPrivate8RefCount5derefEv.exit.thread2.i:    ; preds = %_ZN9QtPrivate8RefCount5derefEv.exit._ZN9QtPrivate8RefCount5derefEv.exit.thread2_crit_edge.i, %49
  %53 = phi ptr [ %.pre.i, %_ZN9QtPrivate8RefCount5derefEv.exit._ZN9QtPrivate8RefCount5derefEv.exit.thread2_crit_edge.i ], [ %50, %49 ]
  call void @_ZN10QArrayData10deallocateEPS_mm(ptr noundef %53, i64 noundef 2, i64 noundef 8) #27
  br label %_ZN7QStringD2Ev.exit

_ZN7QStringD2Ev.exit:                             ; preds = %49, %_ZN9QtPrivate8RefCount5derefEv.exit.i, %_ZN9QtPrivate8RefCount5derefEv.exit.thread2.i
  ret void

54:                                               ; preds = %_ZN7QString6setNumEfci.exit15, %40, %_ZN7QString6setNumEfci.exit9, %31, %_ZN7QString6setNumEfci.exit, %3
  %55 = landingpad { ptr, i32 }
          cleanup
  br label %.body

.body:                                            ; preds = %38, %47, %54, %29
  %eh.lpad-body = phi { ptr, i32 } [ %30, %29 ], [ %39, %38 ], [ %55, %54 ], [ %48, %47 ]
  call void @_ZN7QStringD2Ev(ptr noundef nonnull align 8 dereferenceable(8) %7) #27
  resume { ptr, i32 } %eh.lpad-body
}